; Function Attrs: mustprogress uwtable
define void @_ZN7rocksdb17PosixWritableFile15InvalidateCacheEmm(ptr noalias nocapture writeonly sret(%"class.rocksdb::IOStatus") align 8 %agg.result, ptr noundef nonnull align 8 dereferenceable(99) %this, i64 noundef %offset, i64 noundef %length) unnamed_addr #0 align 2 personality ptr @__gxx_personality_v0 {
entry:
  %ref.tmp = alloca %"class.std::__cxx11::basic_string", align 8
  %ref.tmp5 = alloca %"class.std::allocator", align 1
  %vtable = load ptr, ptr %this, align 8
  %vfn = getelementptr inbounds i8, ptr %vtable, i64 96
  %0 = load ptr, ptr %vfn, align 8
  %call = tail call noundef zeroext i1 %0(ptr noundef nonnull align 8 dereferenceable(99) %this)
  br i1 %call, label %if.then, label %if.end

if.then:                                          ; preds = %entry
  store i8 0, ptr %agg.result, align 8, !alias.scope !165
  %subcode_.i.i.i.i = getelementptr inbounds i8, ptr %agg.result, i64 1
  store i8 0, ptr %subcode_.i.i.i.i, align 1, !alias.scope !165
  %sev_.i.i.i.i = getelementptr inbounds i8, ptr %agg.result, i64 2
  %state_.i.i.i.i = getelementptr inbounds i8, ptr %agg.result, i64 8
  store ptr null, ptr %state_.i.i.i.i, align 8, !alias.scope !165
  store i32 0, ptr %sev_.i.i.i.i, align 2, !alias.scope !165
  br label %return

if.end:                                           ; preds = %entry
  %fd_ = getelementptr inbounds i8, ptr %this, i64 76
  %1 = load i32, ptr %fd_, align 4
  %call.i = tail call noundef i32 @posix_fadvise(i32 noundef %1, i64 noundef %offset, i64 noundef %length, i32 noundef 4) #25
  %cmp = icmp eq i32 %call.i, 0
  br i1 %cmp, label %if.then3, label %if.end4

if.then3:                                         ; preds = %if.end
  store i8 0, ptr %agg.result, align 8, !alias.scope !168
  %subcode_.i.i.i.i2 = getelementptr inbounds i8, ptr %agg.result, i64 1
  store i8 0, ptr %subcode_.i.i.i.i2, align 1, !alias.scope !168
  %sev_.i.i.i.i3 = getelementptr inbounds i8, ptr %agg.result, i64 2
  %state_.i.i.i.i4 = getelementptr inbounds i8, ptr %agg.result, i64 8
  store ptr null, ptr %state_.i.i.i.i4, align 8, !alias.scope !168
  store i32 0, ptr %sev_.i.i.i.i3, align 2, !alias.scope !168
  br label %return

if.end4:                                          ; preds = %if.end
  call void @_ZNSaIcEC1Ev(ptr noundef nonnull align 1 dereferenceable(1) %ref.tmp5) #25
  %call.i56 = invoke noundef ptr @_ZNSt7__cxx1112basic_stringIcSt11char_traitsIcESaIcEE13_M_local_dataEv(ptr noundef nonnull align 8 dereferenceable(32) %ref.tmp)
          to label %call.i5.noexc unwind label %lpad

call.i5.noexc:                                    ; preds = %if.end4
  invoke void @_ZNSt7__cxx1112basic_stringIcSt11char_traitsIcESaIcEE12_Alloc_hiderC1EPcRKS3_(ptr noundef nonnull align 8 dereferenceable(8) %ref.tmp, ptr noundef %call.i56, ptr noundef nonnull align 1 dereferenceable(1) %ref.tmp5)
          to label %.noexc unwind label %lpad

.noexc:                                           ; preds = %call.i5.noexc
  invoke void @_ZNSt7__cxx1112basic_stringIcSt11char_traitsIcESaIcEE12_M_constructIPKcEEvT_S8_St20forward_iterator_tag(ptr noundef nonnull align 8 dereferenceable(32) %ref.tmp, ptr noundef nonnull @.str.49, ptr noundef nonnull getelementptr inbounds ([24 x i8], ptr @.str.49, i64 0, i64 23))
          to label %invoke.cont unwind label %lpad.i

lpad.i:                                           ; preds = %.noexc
  %2 = landingpad { ptr, i32 }
          cleanup
  call void @_ZNSaIcED2Ev(ptr noundef nonnull align 1 dereferenceable(1) %ref.tmp) #25
  br label %ehcleanup

invoke.cont:                                      ; preds = %.noexc
  %filename_ = getelementptr inbounds i8, ptr %this, i64 40
  %call6 = tail call ptr @__errno_location() #30
  %3 = load i32, ptr %call6, align 4
  invoke void @_ZN7rocksdb7IOErrorERKNSt7__cxx1112basic_stringIcSt11char_traitsIcESaIcEEES7_i(ptr sret(%"class.rocksdb::IOStatus") align 8 %agg.result, ptr noundef nonnull align 8 dereferenceable(32) %ref.tmp, ptr noundef nonnull align 8 dereferenceable(32) %filename_, i32 noundef %3)
          to label %invoke.cont8 unwind label %lpad7

invoke.cont8:                                     ; preds = %invoke.cont
  call void @_ZNSt7__cxx1112basic_stringIcSt11char_traitsIcESaIcEED1Ev(ptr noundef nonnull align 8 dereferenceable(32) %ref.tmp) #25
  call void @_ZNSaIcED1Ev(ptr noundef nonnull align 1 dereferenceable(1) %ref.tmp5) #25
  br label %return

lpad:                                             ; preds = %call.i5.noexc, %if.end4
  %4 = landingpad { ptr, i32 }
          cleanup
  br label %ehcleanup

lpad7:                                            ; preds = %invoke.cont
  %5 = landingpad { ptr, i32 }
          cleanup
  call void @_ZNSt7__cxx1112basic_stringIcSt11char_traitsIcESaIcEED1Ev(ptr noundef nonnull align 8 dereferenceable(32) %ref.tmp) #25
  br label %ehcleanup

ehcleanup:                                        ; preds = %lpad, %lpad.i, %lpad7
  %.pn = phi { ptr, i32 } [ %5, %lpad7 ], [ %4, %lpad ], [ %2, %lpad.i ]
  call void @_ZNSaIcED1Ev(ptr noundef nonnull align 1 dereferenceable(1) %ref.tmp5) #25
  resume { ptr, i32 } %.pn

return:                                           ; preds = %invoke.cont8, %if.then3, %if.then
  ret void
}